
a.out:     file format elf32-littleriscv


Disassembly of section .init:

80000000 <_start>:
80000000:	00002197          	auipc	gp,0x2
80000004:	a4818193          	addi	gp,gp,-1464 # 80001a48 <__global_pointer$>
80000008:	10040117          	auipc	sp,0x10040
8000000c:	ff810113          	addi	sp,sp,-8 # 90040000 <__stack_top>
80000010:	00010433          	add	s0,sp,zero
80000014:	0b80006f          	j	800000cc <main>

Disassembly of section .text:

80000018 <exit_ok>:
80000018:	ff010113          	addi	sp,sp,-16
8000001c:	00812423          	sw	s0,8(sp)
80000020:	01010413          	addi	s0,sp,16
80000024:	02a00513          	li	a0,42
80000028:	05d00893          	li	a7,93
8000002c:	00000013          	nop
80000030:	00000013          	nop
80000034:	00000013          	nop
80000038:	00000013          	nop
8000003c:	00100073          	ebreak
80000040:	00812403          	lw	s0,8(sp)
80000044:	01010113          	addi	sp,sp,16
80000048:	00008067          	ret

8000004c <exit_fail>:
8000004c:	ff010113          	addi	sp,sp,-16
80000050:	00812423          	sw	s0,8(sp)
80000054:	01010413          	addi	s0,sp,16
80000058:	00000513          	li	a0,0
8000005c:	05d00893          	li	a7,93
80000060:	00000013          	nop
80000064:	00000013          	nop
80000068:	00000013          	nop
8000006c:	00000013          	nop
80000070:	00100073          	ebreak
80000074:	00812403          	lw	s0,8(sp)
80000078:	01010113          	addi	sp,sp,16
8000007c:	00008067          	ret

80000080 <strlen_simple>:
80000080:	fd010113          	addi	sp,sp,-48
80000084:	02812623          	sw	s0,44(sp)
80000088:	03010413          	addi	s0,sp,48
8000008c:	fca42e23          	sw	a0,-36(s0)
80000090:	fe042623          	sw	zero,-20(s0)
80000094:	0100006f          	j	800000a4 <strlen_simple+0x24>
80000098:	fec42783          	lw	a5,-20(s0)
8000009c:	00178793          	addi	a5,a5,1
800000a0:	fef42623          	sw	a5,-20(s0)
800000a4:	fec42783          	lw	a5,-20(s0)
800000a8:	fdc42703          	lw	a4,-36(s0)
800000ac:	00f707b3          	add	a5,a4,a5
800000b0:	0007c783          	lbu	a5,0(a5)
800000b4:	fe0792e3          	bnez	a5,80000098 <strlen_simple+0x18>
800000b8:	fec42783          	lw	a5,-20(s0)
800000bc:	00078513          	mv	a0,a5
800000c0:	02c12403          	lw	s0,44(sp)
800000c4:	03010113          	addi	sp,sp,48
800000c8:	00008067          	ret

800000cc <main>:
800000cc:	fe010113          	addi	sp,sp,-32
800000d0:	00112e23          	sw	ra,28(sp)
800000d4:	00812c23          	sw	s0,24(sp)
800000d8:	02010413          	addi	s0,sp,32
800000dc:	800007b7          	lui	a5,0x80000
800000e0:	1bc78793          	addi	a5,a5,444 # 800001bc <__stack_top+0xeffc01bc>
800000e4:	fef42423          	sw	a5,-24(s0)
800000e8:	fe842503          	lw	a0,-24(s0)
800000ec:	f95ff0ef          	jal	ra,80000080 <strlen_simple>
800000f0:	fea42223          	sw	a0,-28(s0)
800000f4:	fe842503          	lw	a0,-24(s0)
800000f8:	038000ef          	jal	ra,80000130 <strlen>
800000fc:	00050793          	mv	a5,a0
80000100:	fef42023          	sw	a5,-32(s0)
80000104:	fe442703          	lw	a4,-28(s0)
80000108:	fe042783          	lw	a5,-32(s0)
8000010c:	00f71663          	bne	a4,a5,80000118 <main+0x4c>
80000110:	f09ff0ef          	jal	ra,80000018 <exit_ok>
80000114:	0080006f          	j	8000011c <main+0x50>
80000118:	f35ff0ef          	jal	ra,8000004c <exit_fail>
8000011c:	fe042623          	sw	zero,-20(s0)
80000120:	fec42783          	lw	a5,-20(s0)
80000124:	00178793          	addi	a5,a5,1
80000128:	fef42623          	sw	a5,-20(s0)
8000012c:	ff5ff06f          	j	80000120 <main+0x54>

80000130 <strlen>:
80000130:	00357793          	andi	a5,a0,3
80000134:	00050713          	mv	a4,a0
80000138:	04079c63          	bnez	a5,80000190 <strlen+0x60>
8000013c:	7f7f86b7          	lui	a3,0x7f7f8
80000140:	f7f68693          	addi	a3,a3,-129 # 7f7f7f7f <__uart_base_addr+0x6f7f7f7f>
80000144:	fff00593          	li	a1,-1
80000148:	00072603          	lw	a2,0(a4)
8000014c:	00470713          	addi	a4,a4,4
80000150:	00d677b3          	and	a5,a2,a3
80000154:	00d787b3          	add	a5,a5,a3
80000158:	00c7e7b3          	or	a5,a5,a2
8000015c:	00d7e7b3          	or	a5,a5,a3
80000160:	feb784e3          	beq	a5,a1,80000148 <strlen+0x18>
80000164:	ffc74683          	lbu	a3,-4(a4)
80000168:	40a707b3          	sub	a5,a4,a0
8000016c:	04068463          	beqz	a3,800001b4 <strlen+0x84>
80000170:	ffd74683          	lbu	a3,-3(a4)
80000174:	02068c63          	beqz	a3,800001ac <strlen+0x7c>
80000178:	ffe74503          	lbu	a0,-2(a4)
8000017c:	00a03533          	snez	a0,a0
80000180:	00f50533          	add	a0,a0,a5
80000184:	ffe50513          	addi	a0,a0,-2
80000188:	00008067          	ret
8000018c:	fa0688e3          	beqz	a3,8000013c <strlen+0xc>
80000190:	00074783          	lbu	a5,0(a4)
80000194:	00170713          	addi	a4,a4,1
80000198:	00377693          	andi	a3,a4,3
8000019c:	fe0798e3          	bnez	a5,8000018c <strlen+0x5c>
800001a0:	40a70733          	sub	a4,a4,a0
800001a4:	fff70513          	addi	a0,a4,-1
800001a8:	00008067          	ret
800001ac:	ffd78513          	addi	a0,a5,-3
800001b0:	00008067          	ret
800001b4:	ffc78513          	addi	a0,a5,-4
800001b8:	00008067          	ret
